; Function Attrs: mustprogress nounwind null_pointer_is_valid sspstrong uwtable
define void @_ZN18StripHeadersDialogD2Ev(ptr noundef align 8 dereferenceable_or_null(48) initializes((0, 8), (16, 24)) %0) unnamed_addr #5 align 2 {
  store ptr getelementptr inbounds nuw inrange(-16, 456) (i8, ptr @_ZTV18StripHeadersDialog, i64 16), ptr %0, align 8
  %2 = getelementptr inbounds nuw i8, ptr %0, i64 16
  store ptr getelementptr inbounds nuw inrange(-16, 64) (i8, ptr @_ZTV18StripHeadersDialog, i64 488), ptr %2, align 8
  %3 = getelementptr inbounds nuw i8, ptr %0, i64 40
  %4 = load ptr, ptr %3, align 8
  %5 = icmp eq ptr %4, null
  br i1 %5, label %7, label %6

6:                                                ; preds = %1
  tail call void @_ZdlPvm(ptr noundef nonnull %4, i64 noundef 48) #18
  br label %7

7:                                                ; preds = %6, %1
  tail call void @_ZN7QDialogD2Ev(ptr noundef align 8 dereferenceable_or_null(40) %0) #17
  ret void
}